target datalayout = "e-m:e-p270:32:32-p271:32:32-p272:64:64-i64:64-i128:128-f80:128-n8:16:32:64-S128"
target triple = "x86_64-pc-linux-gnu"

%struct.exr_attr_opaquedata_t = type { i32, i32, i32, [4 x i8], ptr, ptr, ptr, ptr, ptr }
%struct._priv_exr_context_t = type { i8, i8, i8, i8, i8, i8, i8, i8, %struct.exr_attr_string_t, %struct.exr_attr_string_t, ptr, ptr, ptr, ptr, ptr, ptr, ptr, ptr, i32, i32, i32, i32, i32, float, ptr, ptr, ptr, i64, ptr, ptr, i64, i32, i32, i32, i32, %struct._priv_exr_part_t, ptr, ptr, %struct.exr_attribute_list, %union.pthread_mutex_t, i8, i8, [2 x i8], i32 }
%struct.exr_attr_string_t = type { i32, i32, ptr }
%struct._priv_exr_part_t = type { i32, i32, %struct.exr_attribute_list, ptr, ptr, ptr, ptr, ptr, ptr, ptr, ptr, ptr, ptr, ptr, ptr, ptr, ptr, %struct.exr_attr_box2i_t, %struct.exr_attr_box2i_t, i32, i32, i32, float, i32, i32, ptr, ptr, ptr, ptr, i64, i16, i16, i32, i64, i64 }
%struct.exr_attr_box2i_t = type { %struct.exr_attr_v2i_t, %struct.exr_attr_v2i_t }
%struct.exr_attr_v2i_t = type { i32, i32 }
%struct.exr_attribute_list = type { i32, i32, ptr, ptr }
%union.pthread_mutex_t = type { %struct.__pthread_mutex_s }
%struct.__pthread_mutex_s = type { i32, i32, i32, i32, i32, i16, i16, %struct.__pthread_internal_list }
%struct.__pthread_internal_list = type { ptr, ptr }

@.str = private unnamed_addr constant [54 x i8] c"Invalid reference to opaque data object to initialize\00", align 1
@.str.1 = private unnamed_addr constant [63 x i8] c"Invalid size for opaque data (%lu bytes, must be <= INT32_MAX)\00", align 1

; Function Attrs: nounwind uwtable
define hidden i32 @exr_attr_opaquedata_init(ptr noundef %0, ptr noundef %1, i64 noundef %2) #0 {
  %4 = alloca i32, align 4
  %5 = alloca ptr, align 8
  %6 = alloca ptr, align 8
  %7 = alloca i64, align 8
  %8 = alloca %struct.exr_attr_opaquedata_t, align 8
  %9 = alloca i32, align 4
  store ptr %0, ptr %5, align 8, !tbaa !3
  store ptr %1, ptr %6, align 8, !tbaa !8
  store i64 %2, ptr %7, align 8, !tbaa !9
  call void @llvm.lifetime.start.p0(i64 56, ptr %8) #4
  call void @llvm.memset.p0.i64(ptr align 8 %8, i8 0, i64 56, i1 false)
  %10 = load ptr, ptr %5, align 8, !tbaa !3
  %11 = icmp ne ptr %10, null
  br i1 %11, label %13, label %12

12:                                               ; preds = %3
  store i32 2, ptr %4, align 4
  store i32 1, ptr %9, align 4
  br label %64

13:                                               ; preds = %3
  %14 = load ptr, ptr %6, align 8, !tbaa !8
  %15 = icmp ne ptr %14, null
  br i1 %15, label %22, label %16

16:                                               ; preds = %13
  %17 = load ptr, ptr %5, align 8, !tbaa !3
  %18 = getelementptr inbounds nuw %struct._priv_exr_context_t, ptr %17, i32 0, i32 13
  %19 = load ptr, ptr %18, align 8, !tbaa !11
  %20 = load ptr, ptr %5, align 8, !tbaa !3
  %21 = call i32 %19(ptr noundef %20, i32 noundef 3, ptr noundef @.str)
  store i32 %21, ptr %4, align 4
  store i32 1, ptr %9, align 4
  br label %64

22:                                               ; preds = %13
  %23 = load i64, ptr %7, align 8, !tbaa !9
  %24 = icmp ugt i64 %23, 2147483647
  br i1 %24, label %25, label %32

25:                                               ; preds = %22
  %26 = load ptr, ptr %5, align 8, !tbaa !3
  %27 = getelementptr inbounds nuw %struct._priv_exr_context_t, ptr %26, i32 0, i32 14
  %28 = load ptr, ptr %27, align 8, !tbaa !26
  %29 = load ptr, ptr %5, align 8, !tbaa !3
  %30 = load i64, ptr %7, align 8, !tbaa !9
  %31 = call i32 (ptr, i32, ptr, ...) %28(ptr noundef %29, i32 noundef 3, ptr noundef @.str.1, i64 noundef %30)
  store i32 %31, ptr %4, align 4
  store i32 1, ptr %9, align 4
  br label %64

32:                                               ; preds = %22
  %33 = load ptr, ptr %6, align 8, !tbaa !8
  call void @llvm.memcpy.p0.p0.i64(ptr align 8 %33, ptr align 8 %8, i64 56, i1 false), !tbaa.struct !27
  %34 = load i64, ptr %7, align 8, !tbaa !9
  %35 = icmp ugt i64 %34, 0
  br i1 %35, label %36, label %55

36:                                               ; preds = %32
  %37 = load ptr, ptr %5, align 8, !tbaa !3
  %38 = getelementptr inbounds nuw %struct._priv_exr_context_t, ptr %37, i32 0, i32 16
  %39 = load ptr, ptr %38, align 8, !tbaa !30
  %40 = load i64, ptr %7, align 8, !tbaa !9
  %41 = call ptr %39(i64 noundef %40)
  %42 = load ptr, ptr %6, align 8, !tbaa !8
  %43 = getelementptr inbounds nuw %struct.exr_attr_opaquedata_t, ptr %42, i32 0, i32 4
  store ptr %41, ptr %43, align 8, !tbaa !31
  %44 = load ptr, ptr %6, align 8, !tbaa !8
  %45 = getelementptr inbounds nuw %struct.exr_attr_opaquedata_t, ptr %44, i32 0, i32 4
  %46 = load ptr, ptr %45, align 8, !tbaa !31
  %47 = icmp ne ptr %46, null
  br i1 %47, label %54, label %48

48:                                               ; preds = %36
  %49 = load ptr, ptr %5, align 8, !tbaa !3
  %50 = getelementptr inbounds nuw %struct._priv_exr_context_t, ptr %49, i32 0, i32 12
  %51 = load ptr, ptr %50, align 8, !tbaa !33
  %52 = load ptr, ptr %5, align 8, !tbaa !3
  %53 = call i32 %51(ptr noundef %52, i32 noundef 1)
  store i32 %53, ptr %4, align 4
  store i32 1, ptr %9, align 4
  br label %64

54:                                               ; preds = %36
  br label %55

55:                                               ; preds = %54, %32
  %56 = load i64, ptr %7, align 8, !tbaa !9
  %57 = trunc i64 %56 to i32
  %58 = load ptr, ptr %6, align 8, !tbaa !8
  %59 = getelementptr inbounds nuw %struct.exr_attr_opaquedata_t, ptr %58, i32 0, i32 0
  store i32 %57, ptr %59, align 8, !tbaa !34
  %60 = load i64, ptr %7, align 8, !tbaa !9
  %61 = trunc i64 %60 to i32
  %62 = load ptr, ptr %6, align 8, !tbaa !8
  %63 = getelementptr inbounds nuw %struct.exr_attr_opaquedata_t, ptr %62, i32 0, i32 2
  store i32 %61, ptr %63, align 8, !tbaa !35
  store i32 0, ptr %4, align 4
  store i32 1, ptr %9, align 4
  br label %64

64:                                               ; preds = %55, %48, %25, %16, %12
  call void @llvm.lifetime.end.p0(i64 56, ptr %8) #4
  %65 = load i32, ptr %4, align 4
  ret i32 %65
}