; Function Attrs: nounwind uwtable
define hidden i32 @exr_attr_opaquedata_init(ptr noundef %0, ptr noundef writeonly %1, i64 noundef %2) local_unnamed_addr #0 {
  %.not = icmp eq ptr %0, null
  br i1 %.not, label %28, label %4

4:                                                ; preds = %3
  %.not23 = icmp eq ptr %1, null
  br i1 %.not23, label %5, label %9

5:                                                ; preds = %4
  %6 = getelementptr inbounds nuw i8, ptr %0, i64 64
  %7 = load ptr, ptr %6, align 8, !tbaa !3
  %8 = tail call i32 %7(ptr noundef nonnull %0, i32 noundef 3, ptr noundef nonnull @.str) #4
  br label %28

9:                                                ; preds = %4
  %10 = icmp ugt i64 %2, 2147483647
  br i1 %10, label %11, label %15

11:                                               ; preds = %9
  %12 = getelementptr inbounds nuw i8, ptr %0, i64 72
  %13 = load ptr, ptr %12, align 8, !tbaa !22
  %14 = tail call i32 (ptr, i32, ptr, ...) %13(ptr noundef nonnull %0, i32 noundef 3, ptr noundef nonnull @.str.1, i64 noundef %2) #4
  br label %28

15:                                               ; preds = %9
  tail call void @llvm.memset.p0.i64(ptr noundef nonnull align 8 dereferenceable(56) %1, i8 0, i64 56, i1 false)
  %.not24 = icmp eq i64 %2, 0
  br i1 %.not24, label %25, label %16

16:                                               ; preds = %15
  %17 = getelementptr inbounds nuw i8, ptr %0, i64 88
  %18 = load ptr, ptr %17, align 8, !tbaa !23
  %19 = tail call ptr %18(i64 noundef %2) #4
  %20 = getelementptr inbounds nuw i8, ptr %1, i64 16
  store ptr %19, ptr %20, align 8, !tbaa !24
  %.not25 = icmp eq ptr %19, null
  br i1 %.not25, label %21, label %25

21:                                               ; preds = %16
  %22 = getelementptr inbounds nuw i8, ptr %0, i64 56
  %23 = load ptr, ptr %22, align 8, !tbaa !26
  %24 = tail call i32 %23(ptr noundef nonnull %0, i32 noundef 1) #4
  br label %28

25:                                               ; preds = %16, %15
  %26 = trunc nuw nsw i64 %2 to i32
  store i32 %26, ptr %1, align 8, !tbaa !27
  %27 = getelementptr inbounds nuw i8, ptr %1, i64 8
  store i32 %26, ptr %27, align 8, !tbaa !28
  br label %28

28:                                               ; preds = %3, %25, %21, %11, %5
  %.0 = phi i32 [ %14, %11 ], [ 0, %25 ], [ %24, %21 ], [ %8, %5 ], [ 2, %3 ]
  ret i32 %.0
}